; Function Attrs: mustprogress nounwind uwtable
define hidden void @_ZN5osgeo4proj14DiskChunkCacheD2Ev(ptr noundef nonnull align 8 dereferenceable(56) %0) unnamed_addr #7 align 2 personality ptr @__gxx_personality_v0 {
  %2 = getelementptr inbounds nuw i8, ptr %0, i64 40
  %3 = load ptr, ptr %2, align 8, !tbaa !77
  %.not.i = icmp eq ptr %3, null
  br i1 %.not.i, label %_ZN5osgeo4proj14DiskChunkCache14commitAndCloseEv.exit, label %4

4:                                                ; preds = %1
  %5 = invoke i32 @sqlite3_exec(ptr noundef nonnull %3, ptr noundef nonnull @.str.32, ptr noundef null, ptr noundef null, ptr noundef null)
          to label %.noexc unwind label %23

.noexc:                                           ; preds = %4
  %.not1.i = icmp eq i32 %5, 0
  br i1 %.not1.i, label %.noexc2, label %6

6:                                                ; preds = %.noexc
  %7 = load ptr, ptr %0, align 8, !tbaa !58
  %8 = load ptr, ptr %2, align 8, !tbaa !77
  %9 = invoke ptr @sqlite3_errmsg(ptr noundef %8)
          to label %.noexc1 unwind label %23

.noexc1:                                          ; preds = %6
  invoke void (ptr, i32, ptr, ...) @_Z6pj_logP6pj_ctxiPKcz(ptr noundef %7, i32 noundef 1, ptr noundef nonnull @.str.3, ptr noundef %9)
          to label %.noexc2 unwind label %23

.noexc2:                                          ; preds = %.noexc1, %.noexc
  %10 = load ptr, ptr %2, align 8, !tbaa !77
  %11 = invoke i32 @sqlite3_close(ptr noundef %10)
          to label %.noexc3 unwind label %23

.noexc3:                                          ; preds = %.noexc2
  store ptr null, ptr %2, align 8, !tbaa !77
  br label %_ZN5osgeo4proj14DiskChunkCache14commitAndCloseEv.exit

_ZN5osgeo4proj14DiskChunkCache14commitAndCloseEv.exit: ; preds = %.noexc3, %1
  %12 = getelementptr inbounds nuw i8, ptr %0, i64 48
  %13 = load ptr, ptr %12, align 8, !tbaa !76
  %.not.i4 = icmp eq ptr %13, null
  br i1 %.not.i4, label %_ZNSt10unique_ptrIN5osgeo4proj10SQLite3VFSESt14default_deleteIS2_EED2Ev.exit, label %_ZNKSt14default_deleteIN5osgeo4proj10SQLite3VFSEEclEPS2_.exit.i

_ZNKSt14default_deleteIN5osgeo4proj10SQLite3VFSEEclEPS2_.exit.i: ; preds = %_ZN5osgeo4proj14DiskChunkCache14commitAndCloseEv.exit
  tail call void @_ZN5osgeo4proj10SQLite3VFSD1Ev(ptr noundef nonnull align 8 dereferenceable(8) %13) #30
  tail call void @_ZdlPvm(ptr noundef nonnull %13, i64 noundef 8) #31
  br label %_ZNSt10unique_ptrIN5osgeo4proj10SQLite3VFSESt14default_deleteIS2_EED2Ev.exit

_ZNSt10unique_ptrIN5osgeo4proj10SQLite3VFSESt14default_deleteIS2_EED2Ev.exit: ; preds = %_ZN5osgeo4proj14DiskChunkCache14commitAndCloseEv.exit, %_ZNKSt14default_deleteIN5osgeo4proj10SQLite3VFSEEclEPS2_.exit.i
  store ptr null, ptr %12, align 8, !tbaa !76
  %14 = getelementptr inbounds nuw i8, ptr %0, i64 8
  %15 = load ptr, ptr %14, align 8, !tbaa !18
  %16 = getelementptr inbounds nuw i8, ptr %0, i64 24
  %17 = icmp eq ptr %15, %16
  br i1 %17, label %_ZNKSt7__cxx1112basic_stringIcSt11char_traitsIcESaIcEE11_M_is_localEv.exit.thread.i.i, label %_ZNKSt7__cxx1112basic_stringIcSt11char_traitsIcESaIcEE11_M_is_localEv.exit.i.i

_ZNKSt7__cxx1112basic_stringIcSt11char_traitsIcESaIcEE11_M_is_localEv.exit.thread.i.i: ; preds = %_ZNSt10unique_ptrIN5osgeo4proj10SQLite3VFSESt14default_deleteIS2_EED2Ev.exit
  %18 = getelementptr inbounds nuw i8, ptr %0, i64 16
  %19 = load i64, ptr %18, align 8, !tbaa !22
  %20 = icmp ult i64 %19, 16
  tail call void @llvm.assume(i1 %20)
  br label %_ZNSt7__cxx1112basic_stringIcSt11char_traitsIcESaIcEED2Ev.exit

_ZNKSt7__cxx1112basic_stringIcSt11char_traitsIcESaIcEE11_M_is_localEv.exit.i.i: ; preds = %_ZNSt10unique_ptrIN5osgeo4proj10SQLite3VFSESt14default_deleteIS2_EED2Ev.exit
  %21 = load i64, ptr %16, align 8, !tbaa !23
  %22 = add i64 %21, 1
  tail call void @_ZdlPvm(ptr noundef %15, i64 noundef %22) #31
  br label %_ZNSt7__cxx1112basic_stringIcSt11char_traitsIcESaIcEED2Ev.exit

_ZNSt7__cxx1112basic_stringIcSt11char_traitsIcESaIcEED2Ev.exit: ; preds = %_ZNKSt7__cxx1112basic_stringIcSt11char_traitsIcESaIcEE11_M_is_localEv.exit.thread.i.i, %_ZNKSt7__cxx1112basic_stringIcSt11char_traitsIcESaIcEE11_M_is_localEv.exit.i.i
  ret void

23:                                               ; preds = %.noexc2, %.noexc1, %6, %4
  %24 = landingpad { ptr, i32 }
          catch ptr null
  %25 = extractvalue { ptr, i32 } %24, 0
  tail call void @__clang_call_terminate(ptr %25) #35
  unreachable
}